(dp0
S'CTCK'
p1
(lp2
S'Moose Creek'
p3
aS'ON'
p4
aF-74.9628
aF45.2511
aF81.245674
asS'CWTB'
p5
(lp6
S'BORDER (MAPS)'
p7
aS'QC'
p8
aF-63.21667
aF55.33333
aF479.0
asS'CTRA'
p9
(lp10
S'Rawson Lake'
p11
ag4
aF-93.7328
aF49.6642
aF435.0
asS'CWAF'
p12
(lp13
S'ILE ROUGE(MAPS)'
p14
ag8
aF-69.55556
aF48.06889
aF5.0
asS'CYOW'
p15
(lp16
S'OTTAWA INTL'
p17
ag4
aF-75.66917
aF45.3225
aF114.0
asS'CYHA'
p18
(lp19
S'QUAQTAQ AIRPORT'
p20
ag8
aF-69.61766
aF61.046
aF30.0
asS'CYTJ'
p21
(lp22
S'TERRACE BAY (SAW'
p23
ag4
aF-87.1
aF48.81667
aF287.0
asS'CMYT'
p24
(lp25
S'ST CHRYSOSTOME'
p26
ag8
aF-73.76667
aF45.13333
aF55.0
asS'CWAJ'
p27
(lp28
S'ERIEAU (MAPS)'
p29
ag4
aF-81.9
aF42.25
aF178.0
asS'CWRK'
p30
(lp31
S'BANCROFT AUTOB'
p32
ag4
aF-77.87889
aF45.07139
aF331.0
asS'CYXL'
p33
(lp34
S'SIOUX LOOKOUT AR'
p35
ag4
aF-91.90528
aF50.11389
aF390.0
asS'CWNZ'
p36
(lp37
S'NAGAGAMI (MARS)'
p38
ag4
aF-84.16361
aF49.74694
aF256.0
asS'CXVN'
p39
(lp40
S'VINELAND (AU8)'
p41
ag4
aF-79.4
aF43.18333
aF79.0
asS'CYVP'
p42
(lp43
S'KUUJJUAQ AIRPORT'
p44
ag8
aF-68.42694
aF58.09611
aF60.0
asS'CYMT'
p45
(lp46
S'CHIBOUGAMAU CHAP'
p47
ag8
aF-74.52806
aF49.77194
aF387.0
asS'CWNQ'
p48
(lp49
S'NICOLET (AUTOB)'
p50
ag8
aF-72.65722
aF46.22583
aF10.0
asS'CWAB'
p51
(lp52
S'TROWBRIDGE (MAPS'
p53
ag4
aF-88.87
aF48.3
aF218.0
asS'CYMX'
p54
(lp55
S'MONTREAL/MIRABEL'
p56
ag8
aF-74.03867
aF45.6795
aF82.0
asS'CYTZ'
p57
(lp58
S'TORONTO IL  VOR'
p59
ag4
aF-79.395
aF43.62861
aF77.0
asS'CWNH'
p60
(lp61
S'RIVIERE DU LOUP'
p62
ag8
aF-69.54861
aF47.80583
aF148.0
asS'CWVQ'
p63
(lp64
S'STE ANNE DE BELL'
p65
ag8
aF-73.92917
aF45.42722
aF39.0
asS'CYKF'
p66
(lp67
S'WATERLOO WELL'
p68
ag4
aF-80.38566
aF43.46163
aF317.0
asS'CWNL'
p69
(lp70
S'GREAT DUCK ISLAN'
p71
ag4
aF-82.95
aF45.63333
aF183.0
asS'CYER'
p72
(lp73
S'FT SEVERN'
p74
ag4
aF-87.67611
aF56.01889
aF16.0
asS'CMRU'
p75
(lp76
S'RUSSELTOWN'
p77
ag8
aF-73.7961
aF45.0581
aF65.0
asS'CYVO'
p78
(lp79
S'Val D Or'
p80
ag8
aF-77.7867
aF48.0564
aF337.0
asS'CWVZ'
p81
(lp82
S'ILE CHARRON'
p83
ag8
aF-73.4917
aF45.5839
aF12.0
asS'CWNC'
p84
(lp85
S'COBOURG (MARS)'
p86
ag4
aF-78.16667
aF43.95
aF78.0
asS'CYMO'
p87
(lp88
S'MOOSONEE (SAWR)'
p89
ag4
aF-80.61407
aF51.28908
aF10.0
asS'CYML'
p90
(lp91
S'Charlevoix'
p92
ag8
aF-70.2239
aF47.5975
aF291.73755
asS'CZTB'
p93
(lp94
S'THUNDER BAY'
p95
ag4
aF-89.32722
aF48.36944
aF199.0
asS'CWMJ'
p96
(lp97
S'MANIWAKI'
p98
ag8
aF-75.99194
aF46.27472
aF200.0
asS'CYOO'
p99
(lp100
S'OSHAWA'
p101
ag4
aF-78.88333
aF43.92278
aF139.0
asS'CWTY'
p102
(lp103
S'TROIS RIVIERES'
p104
ag8
aF-72.51611
aF46.35861
aF6.0
asS'CWET'
p105
(lp106
S'EGBERT (MAPS)'
p107
ag4
aF-79.78333
aF44.23333
aF251.0
asS'CMFM'
p108
(lp109
S'FORET MONTMORENC'
p110
ag8
aF-71.14833
aF47.32278
aF672.0
asS'CYQK'
p111
(lp112
S'KENORA AIRPORT'
p113
ag4
aF-94.36528
aF49.79028
aF411.0
asS'CYTR'
p114
(lp115
S'TRENTON (CAN MIL'
p116
ag4
aF-77.52806
aF44.11889
aF86.0
asS'CYLU'
p117
(lp118
S'KANGIKSUALUJJUAQ'
p119
ag8
aF-65.99277
aF58.71139
aF60.0
asS'CWQG'
p120
(lp121
S'VALCARTIER'
p122
ag8
aF-71.5
aF46.9
aF168.0
asS'CYTS'
p123
(lp124
S'TIMMINS AIRPORT'
p125
ag4
aF-81.37667
aF48.56972
aF295.0
asS'CWIX'
p126
(lp127
S'MISTOOK (AUT)'
p128
ag8
aF-71.71583
aF48.59833
aF113.0
asS'CYUL'
p129
(lp130
S'MONTREAL/DORVAL'
p131
ag8
aF-73.74139
aF45.46827
aF36.0
asS'CWIU'
p132
(lp133
S'ST GEDEON'
p134
ag8
aF-71.78333
aF48.48333
aF103.0
asS'CWIT'
p135
(lp136
S'ST CLOTHILDE (A'
p137
ag8
aF-73.67889
aF45.16722
aF52.0
asS'CWQO'
p138
(lp139
S'ILE BICQUETTE'
p140
ag8
aF-68.89278
aF48.41556
aF1.0
asS'CWIZ'
p141
(lp142
S'L Acadie'
p143
ag8
aF-73.3494
aF45.2939
aF45.0
asS'CWQH'
p144
(lp145
S'LENNOXVILLE'
p146
ag8
aF-71.82361
aF45.36889
aF181.0
asS'CWIS'
p147
(lp148
S'CHARLEVOIX (MRX)'
p149
ag8
aF-70.6375
aF47.28417
aF719.0
asS'CTCW'
p150
(lp151
S'CORNWALL'
p152
ag4
aF-74.68333
aF45.03333
aF58.0
asS'CWIM'
p153
(lp154
S'UPSALA (RADAR)'
p155
ag4
aF-90.4083
aF49.0375
aF538.0
asS'CYLA'
p156
(lp157
S'AUPALUK'
p158
ag8
aF-69.59972
aF59.29667
aF35.0
asS'CYUY'
p159
(lp160
S'ROUYN AIRPORT'
p161
ag8
aF-78.83556
aF48.20611
aF301.0
asS'CXHF'
p162
(lp163
S'HIGH FALLS CS (A'
p164
ag8
aF-75.64806
aF45.83944
aF190.0
asS'CYLD'
p165
(lp166
S'CHAPLEAU ARPT(SA'
p167
ag4
aF-83.34667
aF47.82
aF447.0
asS'CWQP'
p168
(lp169
S'POINT PETRE (MAR'
p170
ag4
aF-77.15
aF43.83333
aF79.0
asS'CYLF'
p171
(lp172
S'LANSDOWNE HOUSE'
p173
ag4
aF-87.88333
aF52.23333
aF242.0
asS'CWQR'
p174
(lp175
S'ICE AUX PERROQUE'
p176
ag8
aF-64.20722
aF50.22083
aF9.0
asS'CXHM'
p177
(lp178
S'HAMILTON RBG CS'
p179
ag4
aF-79.90513
aF43.2865
aF107.0
asS'CWIG'
p180
(lp181
S'ICE AUX GRUES'
p182
ag8
aF-70.5331
aF47.0736
aF18.0
asS'CWIA'
p183
(lp184
S'ST HENRI'
p185
ag8
aF-71.85
aF48.65
aF103.0
asS'CWGR'
p186
(lp187
S'ILES-DE-LA-MADEL'
p188
ag8
aF-61.8
aF47.42
aF60.0
asS'CWGQ'
p189
(lp190
S'ROQUEMAURE'
p191
ag4
aF-79.4578
aF48.6325
aF269.0
asS'CTAE'
p192
(lp193
S'ALFRED'
p194
ag4
aF-74.88333
aF45.55
aF57.0
asS'CWEO'
p195
(lp196
S'LAC EON (MAPS)'
p197
ag8
aF-63.28361
aF51.86722
aF561.0
asS'CXSH'
p198
(lp199
S'SHAWINIGAN'
p200
ag8
aF-72.73333
aF46.56333
aF110.0
asS'CTAL'
p201
(lp202
S'ALEXANDRIA'
p203
ag4
aF-74.6142
aF45.3236
aF77.0
asS'CMRI'
p204
(lp205
S'RIGAUD'
p206
ag8
aF-74.2925
aF45.4825
aF30.0
asS'CWIP'
p207
(lp208
S'POINTE NOIRES CS'
p209
ag8
aF-66.43389
aF50.1625
aF25.0
asS'CYPQ'
p210
(lp211
S'PETERBOROUGH ARP'
p212
ag4
aF-78.36333
aF44.23
aF191.0
asS'CMPD'
p213
(lp214
S'PIEDMONT'
p215
ag8
aF-74.0922
aF45.8833
aF175.0
asS'CWGD'
p216
(lp217
S'GODERICH (AUTOB)'
p218
ag4
aF-81.71667
aF43.76667
aF214.0
asS'CYKQ'
p219
(lp220
S'WASKAGANISH AIRP'
p221
ag8
aF-78.75839
aF51.47332
aF23.0
asS'CWGJ'
p222
(lp223
S'MONTREAL RIV HAR'
p224
ag4
aF-84.52
aF47.23
aF559.0
asS'CWGH'
p225
(lp226
S'GRENADIER ISLAND'
p227
ag4
aF-75.85
aF44.41667
aF82.0
asS'CMPL'
p228
(lp229
S'ST POLYCARPE'
p230
ag8
aF-74.3
aF45.3
aF56.0
asS'CWEC'
p231
(lp232
S'WELCOME ISLAND'
p233
ag4
aF-89.11944
aF48.36917
aF209.0
asS'CWBI'
p234
(lp235
S'BRITT (MARS)'
p236
ag4
aF-80.53385
aF45.79317
aF190.0
asS'CWTN'
p237
(lp238
S'CAP TOURMENTE'
p239
ag8
aF-70.78083
aF47.07861
aF6.0
asS'CWCJ'
p240
(lp241
S'PUKASKWA PARK'
p242
ag4
aF-86.29472
aF48.58833
aF206.0
asS'CWTL'
p243
(lp244
S'BIG TROUT LAKE'
p245
ag4
aF-89.87507
aF53.82277
aF222.0
asS'CWMZ'
p246
(lp247
S'WESTERN ISL (MAP'
p248
ag4
aF-80.36667
aF45.03333
aF191.0
asS'CYXZ'
p249
(lp250
S'WAWA AIRPORT'
p251
ag4
aF-84.78667
aF47.96667
aF287.0
asS'CXEA'
p252
(lp253
S'EAR FALLS (AUT)'
p254
ag4
aF-93.22139
aF50.63056
aF355.0
asS'CYPL'
p255
(lp256
S'PICKLE LAKE'
p257
ag4
aF-90.21417
aF51.44639
aF373.0
asS'CWTG'
p258
(lp259
S'POINTE DES MONTS'
p260
ag8
aF-67.38111
aF49.31667
aF5.0
asS'CYGK'
p261
(lp262
S'KINGSTON ARPT (M'
p263
ag4
aF-76.59694
aF44.22528
aF93.0
asS'CYPO'
p264
(lp265
S'Peawanuck'
p266
ag4
aF-85.4433
aF54.9881
aF49.881115
asS'CYPH'
p267
(lp268
S'INUKJUAK'
p269
ag8
aF-78.07694
aF58.47194
aF3.0
asS'CYGL'
p270
(lp271
S'LA GRANDE RIVIER'
p272
ag8
aF-77.70417
aF53.62528
aF195.0
asS'CYXR'
p273
(lp274
S'EARLTON AIRPORT'
p275
ag4
aF-79.84889
aF47.695
aF243.0
asS'CWTA'
p276
(lp277
S'MC TAVISH (AUT)'
p278
ag8
aF-73.57929
aF45.50493
aF63.0
asS'CYGQ'
p279
(lp280
S'GERALDTON AIRPOR'
p281
ag4
aF-86.93056
aF49.78278
aF351.0
asS'CYGP'
p282
(lp283
S'GASPE AIRPORT'
p284
ag8
aF-64.47806
aF48.77694
aF33.0
asS'CXET'
p285
(lp286
S'EGBERT CS'
p287
ag4
aF-79.78333
aF44.23333
aF251.0
asS'CYGR'
p288
(lp289
S'ILES DE LA MADEL'
p290
ag8
aF-61.77806
aF47.42472
aF10.0
asS'CZXR'
p291
(lp292
S'EARLTON'
p293
ag4
aF-79.84889
aF47.695
aF243.0
asS'CYGW'
p294
(lp295
S'KUUJJUARAPIK ARP'
p296
ag8
aF-77.76528
aF55.28194
aF12.0
asS'CYGV'
p297
(lp298
S'HAVRE ST PIERRE'
p299
ag8
aF-63.61139
aF50.28194
aF33.0
asS'CXTI'
p300
(lp301
S'NORTHEAST ONT'
p302
ag4
aF-81.79406
aF49.28146
aF1.0
asS'CXHA'
p303
(lp304
S'HARROW CDA'
p305
ag4
aF-82.89602
aF42.03305
aF191.0
asS'CWTT'
p306
(lp307
S'LAC MEMPHREMAGOG'
p308
ag8
aF-72.16667
aF45.26667
aF209.0
asS'CYAH'
p309
(lp310
S'LA GRANDE IV ARP'
p311
ag8
aF-73.67528
aF53.75472
aF306.0
asS'CYPX'
p312
(lp313
S'PUVIRGNITUQ'
p314
ag8
aF-77.28694
aF60.05056
aF23.0
asS'CXTO'
p315
(lp316
S'TORONTO CITY'
p317
ag4
aF-79.4
aF43.66667
aF113.0
asS'CWTQ'
p318
(lp319
S'MONTREAL/DORVAL'
p320
ag8
aF-73.74167
aF45.46778
aF32.0
asS'CWFQ'
p321
(lp322
S'FRELIGHSBURG'
p323
ag8
aF-72.86167
aF45.05028
aF152.0
asS'CMHN'
p324
(lp325
S'HARRINGTON'
p326
ag8
aF-74.65
aF45.8
aF168.0
asS'CMHB'
p327
(lp328
S'LOCHABER'
p329
ag8
aF-75.2
aF45.63333
aF105.0
asS'CWBA'
p330
(lp331
S'TEMISCAMINQUE'
p332
ag8
aF-79.10111
aF46.70972
aF181.0
asS'CVBI'
p333
(lp334
S'KENORA/ONT VOR'
p335
ag4
aF-94.03333
aF49.46667
aF394.0
asS'CMWD'
p336
(lp337
S'RAWDON'
p338
ag8
aF-73.81667
aF46.01667
aF210.0
asS'CYKP'
p339
(lp340
S'Ogoki Post'
p341
ag4
aF-85.901
aF51.6587
aF180.1815
asS'CXFT'
p342
(lp343
S'FRANKTOWN'
p344
ag4
aF-76.11611
aF45.04102
aF122.0
asS'CMHW'
p345
(lp346
S'HOWICK'
p347
ag8
aF-73.8708
aF45.1717
aF42.0
asS'CWWB'
p348
(lp349
S'BURLINGTON PIERS'
p350
ag4
aF-79.79119
aF43.30022
aF76.0
asS'CYMU'
p351
(lp352
S'UMIUJAQ'
p353
ag8
aF-76.51816
aF56.53616
aF71.0
asS'CWSN'
p354
(lp355
S'LONDON CS'
p356
ag4
aF-81.15
aF43.03333
aF278.0
asS'CMGB'
p357
(lp358
S'GRANBY'
p359
ag8
aF-72.7739
aF45.3728
aF86.0
asS'CYWA'
p360
(lp361
S'PETAWAWA'
p362
ag4
aF-77.31124
aF45.94764
aF130.0
asS'CYZR'
p363
(lp364
S'SARNIA AIRPORT'
p365
ag4
aF-82.30733
aF42.99511
aF181.0
asS'CYNM'
p366
(lp367
S'MATAGAMI AIRPORT'
p368
ag8
aF-77.80278
aF49.76167
aF281.0
asS'CXKE'
p369
(lp370
S'KEMPTVILLE'
p371
ag4
aF-75.63333
aF45.0
aF99.0
asS'CWOC'
p372
(lp373
S'NEW CARLISLE1'
p374
ag8
aF-65.33167
aF48.01194
aF47.0
asS'CWWZ'
p375
(lp376
S'PORT WELLER (MAR'
p377
ag4
aF-79.21667
aF43.25
aF79.0
asS'CYND'
p378
(lp379
S'GATINEAU AIRPORT'
p380
ag8
aF-75.56359
aF45.52169
aF64.0
asS'CWWX'
p381
(lp382
S'COVE ISLAND (MAP'
p383
ag4
aF-81.73639
aF45.3271
aF181.0
asS'CYNC'
p384
(lp385
S'WEMINDJI'
p386
ag8
aF-78.83111
aF53.01055
aF14.0
asS'CYNA'
p387
(lp388
S'NATASHQUAN AIRP'
p389
ag8
aF-61.78889
aF50.19
aF11.0
asS'CYAT'
p390
(lp391
S'Attawapiskat'
p392
ag4
aF-82.4319
aF52.9275
aF5.4982204
asS'CYAS'
p393
(lp394
S'KANGIRSUK (SAWR)'
p395
ag8
aF-69.99917
aF60.02716
aF117.0
asS'CWSI'
p396
(lp397
S'SIMCOE (MARS)'
p398
ag4
aF-80.26667
aF42.85
aF241.0
asS'CWRZ'
p399
(lp400
S'Cap D Espoir'
p401
ag8
aF-64.3169
aF48.4194
aF16.0
asS'CMRY'
p402
(lp403
S'RUISSEAU CRANB'
p404
ag8
aF-73.68333
aF45.11667
aF59.0
asS'CWER'
p405
(lp406
S'Ile D Orleans'
p407
ag8
aF-70.8083
aF46.9967
aF45.0
asS'CXCY'
p408
(lp409
S'CYPRUS LAKE CS'
p410
ag4
aF-81.53333
aF45.23333
aF190.0
asS'CWEW'
p411
(lp412
S'L Assomption'
p413
ag8
aF-73.4347
aF45.8095
aF168.0
asS'CWMN'
p414
(lp415
S'MCGILL RADAR'
p416
ag8
aF-73.93734
aF45.42416
aF63.0
asS'CWSG'
p417
(lp418
S'CAP CHAT (MAPS)'
p419
ag8
aF-66.65444
aF49.10917
aF5.0
asS'CYAD'
p420
(lp421
S'LA GRANDE III(SA'
p422
ag8
aF-76.19633
aF53.57183
aF233.0
asS'CXCA'
p423
(lp424
S'CAMERON FALLS'
p425
ag4
aF-88.34472
aF49.15389
aF228.0
asS'CWMW'
p426
(lp427
S'MANIWAKI'
p428
ag8
aF-76.00611
aF46.30194
aF170.0
asS'CWZS'
p429
(lp430
S'AMQUI'
p431
ag8
aF-67.43472
aF48.47194
aF166.0
asS'CMRG'
p432
(lp433
S'ROUGEMONT'
p434
ag8
aF-73.0508
aF45.4122
aF54.0
asS'CYAM'
p435
(lp436
S'SAULT STE MARIE'
p437
ag4
aF-84.50944
aF46.48333
aF192.0
asS'CYTL'
p438
(lp439
S'BIG TROUT LAKE'
p440
ag4
aF-89.89556
aF53.81556
aF224.0
asS'CWEE'
p441
(lp442
S'CHAMOUCHOUANE AU'
p443
ag8
aF-73.35556
aF49.27861
aF305.0
asS'CWRC'
p444
(lp445
S'BARRAGE ANGLIERS'
p446
ag8
aF-79.2358
aF47.5519
aF266.0
asS'CWJT'
p447
(lp448
S'ST JOVITE (AUTOB'
p449
ag8
aF-74.55583
aF46.08028
aF239.0
asS'CWQV'
p450
(lp451
S'POINTE CLAVEAU'
p452
ag8
aF-70.11444
aF48.26028
aF1.0
asS'CYIK'
p453
(lp454
S'IVUJIVIK ARPT(SA'
p455
ag8
aF-77.92528
aF62.41733
aF42.0
asS'CXKI'
p456
(lp457
S'KIRKLAND LAKE'
p458
ag4
aF-80.0
aF48.15
aF324.0
asS'CXOA'
p459
(lp460
S'OTTAWA CDA RCS'
p461
ag4
aF-75.71667
aF45.38333
aF79.0
asS'CYRJ'
p462
(lp463
S'ROBERVAL AIRPORT'
p464
ag8
aF-72.26556
aF48.52
aF179.0
asS'CXZV'
p465
(lp466
S'SEPT ILES'
p467
ag8
aF-66.25
aF50.21667
aF52.0
asS'CYQT'
p468
(lp469
S'Thunder Bay'
p470
ag4
aF-89.3239
aF48.3719
aF199.0
asS'CYZV'
p471
(lp472
S'SEPT ILES AIRPOR'
p473
ag8
aF-66.26556
aF50.22333
aF55.0
asS'CXKA'
p474
(lp475
S'KAPUSKASING CDA'
p476
ag4
aF-82.44361
aF49.40639
aF218.0
asS'CYRL'
p477
(lp478
S'RED LAKE AIRPORT'
p479
ag4
aF-93.79306
aF51.06694
aF383.0
asS'CXRG'
p480
(lp481
S'RIDGETOWN RCS'
p482
ag4
aF-81.88333
aF42.45
aF205.0
asS'CXDI'
p483
(lp484
S'DELHI CS (AUT)'
p485
ag4
aF-80.5453
aF42.86355
aF232.0
asS'CYRQ'
p486
(lp487
S'Trois Rivieres'
p488
ag8
aF-72.6794
aF46.3528
aF56.619442
asS'CWJM'
p489
(lp490
S'UPPER RIDEAU LAK'
p491
ag4
aF-76.3
aF44.7
aF125.0
asS'CWJB'
p492
(lp493
S'ST FOY/U LAVAL'
p494
ag8
aF-71.2875
aF46.78028
aF91.0
asS'CZGJ'
p495
(lp496
S'MONTREAL RIV'
p497
ag4
aF-84.6
aF47.25
aF520.0
asS'CWJO'
p498
(lp499
S'JONQUIERE(AUTO)'
p500
ag8
aF-71.14264
aF48.42505
aF133.0
asS'CXZC'
p501
(lp502
S'MOOSONEE RCS'
p503
ag4
aF-80.61806
aF51.29167
aF9.0
asS'CYZG'
p504
(lp505
S'SALLIUT ARPT (SA'
p506
ag8
aF-75.66722
aF62.17944
aF226.0
asS'CMCW'
p507
(lp508
S'COVEY HILL'
p509
ag8
aF-73.86667
aF45.01667
aF262.0
asS'CYZE'
p510
(lp511
S'GORE BAY AIRPORT'
p512
ag4
aF-82.56778
aF45.88528
aF193.0
asS'CWLF'
p513
(lp514
S'LANSDOWNE HOUSE'
p515
ag4
aF-87.93611
aF52.19611
aF242.0
asS'CYYZ'
p516
(lp517
S'TORONTO/PEARSON'
p518
ag4
aF-79.63056
aF43.67722
aF173.0
asS'CWDV'
p519
(lp520
S'UPSALA (MARS)'
p521
ag4
aF-90.46667
aF49.03333
aF489.0
asS'CWDT'
p522
(lp523
S'CHUTE DES PASSES'
p524
ag8
aF-71.16833
aF49.84028
aF399.0
asS'CWDQ'
p525
(lp526
S'LA TUQUE'
p527
ag8
aF-72.7875
aF47.41111
aF169.0
asS'CWLU'
p528
(lp529
S'LAUZON'
p530
ag8
aF-71.1586
aF46.8319
aF20.0
asS'CWLS'
p531
(lp532
S'MOUNT FOREST(MAR'
p533
ag4
aF-80.75
aF43.98333
aF415.0
asS'CWVY'
p534
(lp535
S'VILLEROY RADAR'
p536
ag8
aF-71.93
aF46.43
aF108.0
asS'CWDF'
p537
(lp538
S'OLIPHANT (AUTOB)'
p539
ag4
aF-81.275
aF44.7167
aF182.0
asS'CWDD'
p540
(lp541
S'BELLE RIVER AUT0'
p542
ag4
aF-82.7
aF42.3
aF184.0
asS'CWNB'
p543
(lp544
S'S.E. SHOAL (MAPS'
p545
ag4
aF-82.46667
aF41.83333
aF195.0
asS'CYQG'
p546
(lp547
S'WINDSOR AIRPORT'
p548
ag4
aF-82.96038
aF42.26602
aF190.0
asS'CYHM'
p549
(lp550
S'HAMILTON AIRPORT'
p551
ag4
aF-79.93395
aF43.17202
aF238.0
asS'CWUK'
p552
(lp553
S'CHAPAIS'
p554
ag8
aF-74.97528
aF49.8225
aF381.0
asS'CYHH'
p555
(lp556
S'NEMISCAU ARPT(SA'
p557
ag8
aF-76.11667
aF51.7
aF244.0
asS'CYQB'
p558
(lp559
S'QUEBEC'
p560
ag8
aF-71.39333
aF46.79111
aF73.0
asS'CYYY'
p561
(lp562
S'MONT JOLI AIRPOR'
p563
ag8
aF-68.20806
aF48.60861
aF52.0
asS'CYYW'
p564
(lp565
S'Armstrong'
p566
ag4
aF-88.9097
aF50.2903
aF325.47046
asS'CYYU'
p567
(lp568
S'KAPUSKASING AIRP'
p569
ag4
aF-82.46667
aF49.41667
aF227.0
asS'CMBB'
p570
(lp571
S'CHATHAM BROWNBRG'
p572
ag8
aF-74.41667
aF45.61667
aF75.0
asS'CXLT'
p573
(lp574
S'LATERRIERE'
p575
ag8
aF-71.12902
aF48.30723
aF162.0
asS'CMCT'
p576
(lp577
S'ST CONSTANT'
p578
ag8
aF-73.58333
aF45.33333
aF39.0
asS'CZSJ'
p579
(lp580
S'SANDY LAKE'
p581
ag4
aF-93.3444
aF53.0642
aF290.0
asS'CWUX'
p582
(lp583
S'LA BAIE'
p584
ag8
aF-70.91944
aF48.29806
aF135.0
asS'CXDR'
p585
(lp586
S'DRYDEN'
p587
ag4
aF-92.79698
aF49.85823
aF413.0
asS'CYOY'
p588
(lp589
S'VALCARTIER AIRPO'
p590
ag8
aF-71.5033
aF46.9003
aF168.0
asS'CXLA'
p591
(lp592
S'LADRIENNE RADAR'
p593
ag4
aF-77.80815
aF48.55152
aF1.0
asS'CYHU'
p594
(lp595
S'SAINT HUBERT ARP'
p596
ag8
aF-73.41667
aF45.51667
aF27.0
asS'CMBR'
p597
(lp598
S'BEAUHARNOS'
p599
ag8
aF-73.9122
aF45.3194
aF22.0
asS'CYYB'
p600
(lp601
S'NORTH BAY AIRPOR'
p602
ag4
aF-79.42278
aF46.36361
aF371.0
asS'CWCO'
p603
(lp604
S'COLLINGWOOD (AUT'
p605
ag4
aF-80.21667
aF44.5
aF221.0
asS'CWXC'
p606
(lp607
S'ONATCHIWAY'
p608
ag8
aF-71.03167
aF48.89417
aF300.0
asS'CWPL'
p609
(lp610
S'PICKLE LAKE'
p611
ag4
aF-90.21778
aF51.44917
aF386.0
asS'CWCI'
p612
(lp613
S'CARIBOU ISL (MAP'
p614
ag4
aF-85.83333
aF47.33333
aF187.0
asS'CWCH'
p615
(lp616
S'ATIKOKAN (AUT)'
p617
ag4
aF-91.62806
aF48.76111
aF424.0
asS'CWPS'
p618
(lp619
S'LONG POINT (MAPS'
p620
ag4
aF-80.05
aF42.56667
aF175.0
asS'CWBY'
p621
(lp622
S'PORT MENIER (MAR'
p623
ag8
aF-64.29333
aF49.83861
aF53.0
asS'CWPQ'
p624
(lp625
S'MONTREAL EST'
p626
ag8
aF-73.60183
aF45.59697
aF6.0
asS'CYHD'
p627
(lp628
S'DRYDEN AIRPORT'
p629
ag4
aF-92.74417
aF49.83167
aF413.0
asS'CWPK'
p630
(lp631
S'PARENT (MARS)'
p632
ag8
aF-74.62417
aF47.92222
aF442.0
asS'CWPH'
p633
(lp634
S'INUKJUAK'
p635
ag8
aF-78.12
aF58.45
aF253.0
asS'CYTQ'
p636
(lp637
S'TASIUJAQ A'
p638
ag8
aF-69.95583
aF58.66777
aF31.0
asS'CYCK'
p639
(lp640
S'Chatham Kent'
p641
ag4
aF-82.0817
aF42.3062
aF193.99951
asS'CWPB'
p642
(lp643
S'BEAUSOLEIL ISL A'
p644
ag4
aF-79.86667
aF44.85
aF183.0
asS'CWPC'
p645
(lp646
S'PORT COLBORNE(AU'
p647
ag4
aF-79.2531
aF42.8676
aF184.0
asS'CWCU'
p648
(lp649
S'BARRIE (MARS)'
p650
ag4
aF-79.78333
aF44.38333
aF295.0
asS'CZMD'
p651
(lp652
S'MUSKRAT DAM'
p653
ag4
aF-91.7628
aF53.4414
aF278.0
asS'CWPD'
p654
(lp655
S'PARC DES LAURENT'
p656
ag8
aF-71.22889
aF47.56222
aF803.0
asS'CXAM'
p657
(lp658
S'VAL D IRENE RADR'
p659
ag8
aF-67.6011
aF48.4803
aF583.0
asS'CWHP'
p660
(lp661
S'HEATH POINT (MAP'
p662
ag8
aF-61.70056
aF49.08528
aF4.0
asS'CWHQ'
p663
(lp664
S'DESCHAMBAULTS'
p665
ag8
aF-71.97172
aF46.69068
aF55.0
asS'CWHV'
p666
(lp667
S'BEAUCEVILLE'
p668
ag8
aF-70.785
aF46.205
aF229.0
asS'CYQA'
p669
(lp670
S'MUSKOKA AIRPORT'
p671
ag4
aF-79.30333
aF44.97472
aF282.0
asS'CYLH'
p672
(lp673
S'LANSDOWNE HOUSE'
p674
ag4
aF-87.93408
aF52.19542
aF254.0
asS'CWHY'
p675
(lp676
S'MONT ORFORD'
p677
ag8
aF-72.2407
aF45.3118
aF851.0
asS'CXPC'
p678
(lp679
S'PARRY SOUND'
p680
ag4
aF-80.04417
aF45.34417
aF176.0
asS'CYKZ'
p681
(lp682
S'TORONTO BUTTONVI'
p683
ag4
aF-79.36667
aF43.86667
aF198.0
asS'CWZC'
p684
(lp685
S'MOOSONEE'
p686
ag4
aF-80.65306
aF51.26306
aF11.0
asS'CYKG'
p687
(lp688
S'KANGIQSUJUAQ(SAW'
p689
ag8
aF-71.9295
aF61.5885
aF151.0
asS'CWKD'
p690
(lp691
S'BONNARD(AUTO)'
p692
ag8
aF-71.01306
aF50.72889
aF497.0
asS'CYKL'
p693
(lp694
S'SCHEFFERVILLE AR'
p695
ag8
aF-66.80528
aF54.80528
aF521.0
asS'CYKO'
p696
(lp697
S'AKULIVIK AIRPORT'
p698
ag8
aF-78.15
aF60.81667
aF9.0
asS'CWGL'
p699
(lp700
S'LAGOON CITY'
p701
ag4
aF-79.21667
aF44.54722
aF221.0
asS'CZEL'
p702
(lp703
S'ELORA RCS'
p704
ag4
aF-80.4116
aF43.64208
aF376.0
asS'CZEM'
p705
(lp706
S'EASTMAIN RIVER A'
p707
ag8
aF-78.5225
aF52.22639
aF7.0
asS'CWHM'
p708
(lp709
S'VARENNES'
p710
ag8
aF-73.37667
aF45.72306
aF192.0
asS'CMSX'
p711
(lp712
S'ST M-D-NAPIERVIL'
p713
ag8
aF-73.6242
aF45.1869
aF59.0
asS'CTNK'
p714
(lp715
S'ALGONQUIN PARK'
p716
ag4
aF-78.26667
aF45.53333
aF410.0
asS'CMLA'
p717
(lp718
S'L ARTIFICE'
p719
ag8
aF-73.8328
aF45.0697
aF61.0
asS'CYVV'
p720
(lp721
S'WIARTON AIR'
p722
ag4
aF-81.10722
aF44.74583
aF222.0
asS'CYEL'
p723
(lp724
S'ELLIOT LAKE (SAW'
p725
ag4
aF-82.56139
aF46.35139
aF329.0
asS'CWBE'
p726
(lp727
S'KILLARNEY (MAPS)'
p728
ag4
aF-81.48333
aF45.96667
aF196.0
asS'CYBX'
p729
(lp730
S'BLANC SABLON ARP'
p731
ag8
aF-57.18528
aF51.44361
aF35.0
asS'CWST'
p732
(lp733
S'LA POCATIERE'
p734
ag8
aF-70.03194
aF47.35583
aF31.0
asS'CTWN'
p735
(lp736
S'WINCHESTER'
p737
ag4
aF-75.3367
aF45.0511
aF75.0
asS'CMLI'
p738
(lp739
S'SAINT LOUIS'
p740
ag8
aF-73.0
aF45.86667
aF31.0
asS'CWSO'
p741
(lp742
S'EXETER RADAR'
p743
ag4
aF-81.38333
aF43.36667
aF1.0
asS'CYBC'
p744
(lp745
S'BAIE COMEAU AIRP'
p746
ag8
aF-68.20444
aF49.1325
aF22.0
asS'CYBG'
p747
(lp748
S'BAGOTVILLE(CAN M'
p749
ag8
aF-70.9869
aF48.33393
aF159.0
asS'CWBZ'
p750
(lp751
S'ST ANICET'
p752
ag8
aF-74.28944
aF45.12083
aF49.0
asS'CXBO'
p753
(lp754
S'BEAUPORT'
p755
ag8
aF-71.19722
aF46.83694
aF100.0
asS'CWSF'
p756
(lp757
S'CAP MADELEINE(MA'
p758
ag8
aF-65.32472
aF49.25083
aF29.0
asS'CMSC'
p759
(lp760
S'ST CELESTIN'
p761
ag8
aF-72.4458
aF46.2058
aF55.0
asS'CMSB'
p762
(lp763
S'ST SABINE'
p764
ag8
aF-73.0233
aF45.2233
aF49.0
asS'CYBN'
p765
(lp766
S'BORDEN'
p767
ag4
aF-79.92189
aF44.27044
aF223.0
asS'CXNI'
p768
(lp769
S'SUPERIOR W RADAR'
p770
ag4
aF-89.1214
aF48.8536
aF1.0
asS'CXBI'
p771
(lp772
S'BARRIE-ORO'
p773
ag4
aF-79.54666
aF44.48449
aF289.0
asS'CWBS'
p774
(lp775
S'LAC ST PIERRE (A'
p776
ag8
aF-72.91667
aF46.18333
aF16.0
asS'CYSN'
p777
(lp778
S'ST. CATHARINES A'
p779
ag4
aF-79.17167
aF43.19167
aF98.0
asS'CWBT'
p780
(lp781
S'LONGUE PT DE MON'
p782
ag8
aF-64.22639
aF50.27139
aF11.0
asS'CYSC'
p783
(lp784
S'SHERBROOKE'
p785
ag8
aF-71.69139
aF45.43861
aF241.0
asS'CYSB'
p786
(lp787
S'SUDBURY AIRPORT'
p788
ag4
aF-80.80158
aF46.62611
aF348.0
asS'CWDM'
p789
(lp790
S'CHEVERY (MARS)'
p791
ag8
aF-59.63944
aF50.465
aF6.0
asS'CXQT'
p792
(lp793
S'Thunder Bay'
p794
ag4
aF-89.2167
aF48.4333
aF179.20033
asS'CYXU'
p795
(lp796
S'LONDON AIRPORT'
p797
ag4
aF-81.15389
aF43.03556
aF278.0
asS'CWOD'
p798
(lp799
S'NORMANDIN'
p800
ag8
aF-72.54648
aF48.84191
aF137.0
asS'CWKK'
p801
(lp802
S'KATATOTA ISLAND'
p803
ag4
aF-88.3322
aF49.7131
aF260.0
asS'CYSP'
p804
(lp805
S'MARATHON'
p806
ag4
aF-86.3444
aF48.7553
aF315.0
as.