ccopy_reg
_reconstructor
p0
(cpandas.core.frame
DataFrame
p1
c__builtin__
object
p2
Ntp3
Rp4
(dp5
S'_metadata'
p6
(lp7
sS'_typ'
p8
S'dataframe'
p9
sS'_data'
p10
g0
(cpandas.core.internals
BlockManager
p11
g2
Ntp12
Rp13
((lp14
cpandas.core.indexes.base
_new_Index
p15
(cpandas.core.indexes.base
Index
p16
(dp17
S'data'
p18
cnumpy.core.multiarray
_reconstruct
p19
(cnumpy
ndarray
p20
(I0
tp21
S'b'
p22
tp23
Rp24
(I1
(I6
tp25
cnumpy
dtype
p26
(S'O8'
p27
I0
I1
tp28
Rp29
(I3
S'|'
p30
NNNI-1
I-1
I63
tp31
bI00
(lp32
S'stid'
p33
aS'name'
p34
aS'lat [deg]'
p35
aS'lon [deg]'
p36
aS'elev [m]'
p37
aS'county'
p38
atp39
bsS'name'
p40
Nstp41
Rp42
ag15
(cpandas.core.indexes.range
RangeIndex
p43
(dp44
S'start'
p45
I0
sS'step'
p46
I1
sS'stop'
p47
I17
sg40
Nstp48
Rp49
a(lp50
g19
(g20
(I0
tp51
g22
tp52
Rp53
(I1
(I3
I17
tp54
g26
(S'f8'
p55
I0
I1
tp56
Rp57
(I3
S'<'
p58
NNNI-1
I-1
I0
tp59
bI00
S'Nb\x10X9`E@\xf0\xdc{\xb8\xe4\xe4E@\xd1\xb0\x18u\xadoD@\xfb\xd0\x05\xf5-\x7fE@n\x12\x83\xc0\xcaqF@\x9f\x93\xde7\xbe\x02E@\x08\x1e\xdf\xde5|D@[Y\xa2\xb3\xcc\x88E@\xbd6\x1b+1\x03E@q\xa7t\xb0\xfe]D@\xa3\xc7\xefm\xfa\xffD@\xbf)\xacTPMD@P\x8b\xc1\xc3\xb4uD@\xc7\xa0\x13B\x07\x91D@D\xf7\xack\xb4\x1cF@\xac\x1cZd;SD@E\xd8\xf0\xf4J\xa1E@\x88\xf9\xf2\x02\xecsR\xc0\xf6\x97\xdd\x93\x87\x07S\xc0j\x10\xe6v/yR\xc0\xc5\xc4\xe6\xe3\xda\xb2S\xc0D4\xba\x83\xd8]R\xc0\x15\xe3\xfcM(\xe8S\xc0T\x1dr3\xdc\x0cR\xc0U\x16\x85]\x14\x1eS\xc0"\xe2\xe6T2\x10S\xc0\xb5\x8f\x15\xfc6tR\xc0To\rl\x95xR\xc0G\x1f\xf3\x01\x81\x89R\xc0 E\x9d\xb9\x87HR\xc0$I\x10\xae\x80\x85R\xc0w\xf5*2:\x9cR\xc0\x7f\xd9=yX`R\xc0\x91a\x15odZS\xc0\x14\xaeG\xe1z\xc4T@33333\x03c@H\xe1z\x14\xae\xa7M@\x14\xaeG\xe1z,g@\xc3\xf5(\\\x8f\x92R@33333\x97|@\xb8\x1e\x85\xebQ\xf86@\x1f\x85\xebQ\xb8.`@fffff\x06}@R\xb8\x1e\x85\xebqJ@fffff6R@\xd7\xa3p=\n7A@\xcd\xcc\xcc\xcc\xcc\x8cK@\xa4p=\n\xd7\xfbg@\x9a\x99\x99\x99\x99i\x80@\x00\x00\x00\x00\x00@2@fffff\xe6W@'
p60
tp61
bag19
(g20
(I0
tp62
g22
tp63
Rp64
(I1
(I3
I17
tp65
g29
I00
(lp66
S'PROF_ALBA'
p67
aS'PROF_BELL'
p68
aS'PROF_BRON'
p69
aS'PROF_BUFF'
p70
aS'PROF_CHAZ'
p71
aS'PROF_CLYM'
p72
aS'PROF_EHAM'
p73
aS'PROF_JORD'
p74
aS'PROF_OWEG'
p75
aS'PROF_QUEE'
p76
aS'PROF_REDH'
p77
aS'PROF_STAT'
p78
aS'PROF_STON'
p79
aS'PROF_SUFF'
p80
aS'PROF_TUPP'
p81
aS'PROF_WANT'
p82
aS'PROF_WEBS'
p83
aS'Albany'
p84
aS'Belleville'
p85
aS'Bronx'
p86
aS'Buffalo'
p87
aS'Chazy'
p88
aS'Clymer'
p89
aS'East Hampton'
p90
aS'Jordan'
p91
aS'Owego'
p92
aS'Queens'
p93
aS'Red Hook'
p94
aS'Staten Island'
p95
aS'Stony Brook'
p96
aS'Suffern'
p97
aS'Tupper Lake'
p98
aS'Wantagh'
p99
aS'Webster'
p100
aS'Albany'
p101
aS'Jefferson'
p102
aS'Bronx'
p103
aS'Erie'
p104
aS'Clinton'
p105
aS'Chautauqua'
p106
aS'Suffolk'
p107
aS'Onondaga'
p108
aS'Tioga'
p109
aS'Queens'
p110
aS'Dutchess'
p111
aS'Richmond'
p112
ag107
aS'Rockland'
p113
aS'Franklin'
p114
aS'Nassau'
p115
aS'Monroe'
p116
atp117
ba(lp118
g15
(g16
(dp119
g18
g19
(g20
(I0
tp120
g22
tp121
Rp122
(I1
(I3
tp123
g29
I00
(lp124
g35
ag36
ag37
atp125
bsg40
Nstp126
Rp127
ag15
(g16
(dp128
g18
g19
(g20
(I0
tp129
g22
tp130
Rp131
(I1
(I3
tp132
g29
I00
(lp133
g33
ag34
ag38
atp134
bsg40
Nstp135
Rp136
a(dp137
S'0.14.1'
p138
(dp139
S'axes'
p140
g14
sS'blocks'
p141
(lp142
(dp143
S'mgr_locs'
p144
c__builtin__
slice
p145
(I2
I5
I1
tp146
Rp147
sS'values'
p148
g53
sa(dp149
g144
g19
(g20
(I0
tp150
g22
tp151
Rp152
(I1
(I3
tp153
g26
(S'i8'
p154
I0
I1
tp155
Rp156
(I3
S'<'
p157
NNNI-1
I-1
I0
tp158
bI00
S'\x00\x00\x00\x00\x00\x00\x00\x00\x01\x00\x00\x00\x00\x00\x00\x00\x05\x00\x00\x00\x00\x00\x00\x00'
p159
tp160
bsg148
g64
sasstp161
bsb.